; Function Attrs: mustprogress uwtable
define void @_ZN8facebook5velox5cache7SsdFile16deleteCheckpointEb(ptr noundef nonnull align 8 dereferenceable(381) %this, i1 noundef zeroext %keepLog) local_unnamed_addr #4 align 2 personality ptr @__gxx_personality_v0 {
entry:
  %logPath = alloca %"class.std::__cxx11::basic_string", align 8
  %checkpointPath = alloca %"class.std::__cxx11::basic_string", align 8
  %ref.tmp = alloca %"class.google::LogMessage", align 8
  %checkpointDeleted_ = getelementptr inbounds i8, ptr %this, i64 380
  %0 = load i8, ptr %checkpointDeleted_, align 4
  %1 = and i8 %0, 1
  %tobool.not = icmp eq i8 %1, 0
  br i1 %tobool.not, label %if.end, label %return

if.end:                                           ; preds = %entry
  %evictLogFd_ = getelementptr inbounds i8, ptr %this, i64 376
  %2 = load i32, ptr %evictLogFd_, align 8
  %cmp = icmp sgt i32 %2, -1
  br i1 %cmp, label %if.then2, label %if.end14

if.then2:                                         ; preds = %if.end
  br i1 %keepLog, label %if.then4, label %if.else

if.then4:                                         ; preds = %if.then2
  %call = tail call i64 @lseek(i32 noundef %2, i64 noundef 0, i32 noundef 0) #34
  %3 = load i32, ptr %evictLogFd_, align 8
  %call7 = tail call i32 @ftruncate(i32 noundef %3, i64 noundef 0) #34
  %4 = load i32, ptr %evictLogFd_, align 8
  %call9 = tail call i32 @fsync(i32 noundef %4)
  br label %if.end14

if.else:                                          ; preds = %if.then2
  %call11 = tail call i32 @close(i32 noundef %2)
  store i32 -1, ptr %evictLogFd_, align 8
  br label %if.end14

if.end14:                                         ; preds = %if.then4, %if.else, %if.end
  store i8 1, ptr %checkpointDeleted_, align 4
  call void @_ZNSt7__cxx1112basic_stringIcSt11char_traitsIcESaIcEEC1ERKS4_(ptr noundef nonnull align 8 dereferenceable(32) %logPath, ptr noundef nonnull align 8 dereferenceable(32) %this)
  %call.i = invoke noundef nonnull align 8 dereferenceable(32) ptr @_ZNSt7__cxx1112basic_stringIcSt11char_traitsIcESaIcEE6appendEPKc(ptr noundef nonnull align 8 dereferenceable(32) %logPath, ptr noundef nonnull @.str.20)
          to label %_ZStplIcSt11char_traitsIcESaIcEENSt7__cxx1112basic_stringIT_T0_T1_EERKS8_PKS5_.exit unwind label %lpad.i

common.resume:                                    ; preds = %ehcleanup, %lpad.i7, %lpad, %lpad.i
  %common.resume.op = phi { ptr, i32 } [ %5, %lpad.i ], [ %.pn, %ehcleanup ], [ %9, %lpad ], [ %6, %lpad.i7 ]
  call void @_ZNSt7__cxx1112basic_stringIcSt11char_traitsIcESaIcEED1Ev(ptr noundef nonnull align 8 dereferenceable(32) %logPath) #34
  resume { ptr, i32 } %common.resume.op

lpad.i:                                           ; preds = %if.end14
  %5 = landingpad { ptr, i32 }
          cleanup
  br label %common.resume

_ZStplIcSt11char_traitsIcESaIcEENSt7__cxx1112basic_stringIT_T0_T1_EERKS8_PKS5_.exit: ; preds = %if.end14
  br i1 %keepLog, label %if.end20, label %if.then17

if.then17:                                        ; preds = %_ZStplIcSt11char_traitsIcESaIcEENSt7__cxx1112basic_stringIT_T0_T1_EERKS8_PKS5_.exit
  %call18 = call noundef ptr @_ZNKSt7__cxx1112basic_stringIcSt11char_traitsIcESaIcEE5c_strEv(ptr noundef nonnull align 8 dereferenceable(32) %logPath) #34
  %call19 = call i32 @unlink(ptr noundef %call18) #34
  br label %if.end20

if.end20:                                         ; preds = %if.then17, %_ZStplIcSt11char_traitsIcESaIcEENSt7__cxx1112basic_stringIT_T0_T1_EERKS8_PKS5_.exit
  %logRc.0 = phi i32 [ 0, %_ZStplIcSt11char_traitsIcESaIcEENSt7__cxx1112basic_stringIT_T0_T1_EERKS8_PKS5_.exit ], [ %call19, %if.then17 ]
  invoke void @_ZNSt7__cxx1112basic_stringIcSt11char_traitsIcESaIcEEC1ERKS4_(ptr noundef nonnull align 8 dereferenceable(32) %checkpointPath, ptr noundef nonnull align 8 dereferenceable(32) %this)
          to label %.noexc unwind label %lpad

.noexc:                                           ; preds = %if.end20
  %call.i6 = invoke noundef nonnull align 8 dereferenceable(32) ptr @_ZNSt7__cxx1112basic_stringIcSt11char_traitsIcESaIcEE6appendEPKc(ptr noundef nonnull align 8 dereferenceable(32) %checkpointPath, ptr noundef nonnull @.str.21)
          to label %invoke.cont unwind label %lpad.i7

lpad.i7:                                          ; preds = %.noexc
  %6 = landingpad { ptr, i32 }
          cleanup
  call void @_ZNSt7__cxx1112basic_stringIcSt11char_traitsIcESaIcEED1Ev(ptr noundef nonnull align 8 dereferenceable(32) %checkpointPath) #34
  br label %common.resume

invoke.cont:                                      ; preds = %.noexc
  %call22 = call noundef ptr @_ZNKSt7__cxx1112basic_stringIcSt11char_traitsIcESaIcEE5c_strEv(ptr noundef nonnull align 8 dereferenceable(32) %checkpointPath) #34
  %call23 = call i32 @unlink(ptr noundef %call22) #34
  %7 = or i32 %call23, %logRc.0
  %or.cond.not = icmp eq i32 %7, 0
  br i1 %or.cond.not, label %if.end42, label %if.then26

if.then26:                                        ; preds = %invoke.cont
  %deleteCheckpointErrors = getelementptr inbounds i8, ptr %this, i64 328
  %8 = load i32, ptr %deleteCheckpointErrors, align 8
  %inc = add i32 %8, 1
  store i32 %inc, ptr %deleteCheckpointErrors, align 8
  invoke void @_ZN6google10LogMessageC1EPKcii(ptr noundef nonnull align 8 dereferenceable(16) %ref.tmp, ptr noundef nonnull @.str.2, i32 noundef 556, i32 noundef 2)
          to label %invoke.cont28 unwind label %lpad27

invoke.cont28:                                    ; preds = %if.then26
  %call31 = invoke noundef nonnull align 8 dereferenceable(8) ptr @_ZN6google10LogMessage6streamEv(ptr noundef nonnull align 8 dereferenceable(16) %ref.tmp)
          to label %invoke.cont30 unwind label %lpad29

invoke.cont30:                                    ; preds = %invoke.cont28
  %call33 = invoke noundef nonnull align 8 dereferenceable(8) ptr @_ZStlsISt11char_traitsIcEERSt13basic_ostreamIcT_ES5_PKc(ptr noundef nonnull align 8 dereferenceable(8) %call31, ptr noundef nonnull @.str.10)
          to label %invoke.cont32 unwind label %lpad29

invoke.cont32:                                    ; preds = %invoke.cont30
  %call35 = invoke noundef nonnull align 8 dereferenceable(8) ptr @_ZStlsISt11char_traitsIcEERSt13basic_ostreamIcT_ES5_PKc(ptr noundef nonnull align 8 dereferenceable(8) %call33, ptr noundef nonnull @.str.22)
          to label %invoke.cont34 unwind label %lpad29

invoke.cont34:                                    ; preds = %invoke.cont32
  %call37 = invoke noundef nonnull align 8 dereferenceable(8) ptr @_ZNSolsEi(ptr noundef nonnull align 8 dereferenceable(8) %call35, i32 noundef %logRc.0)
          to label %invoke.cont36 unwind label %lpad29

invoke.cont36:                                    ; preds = %invoke.cont34
  %call39 = invoke noundef nonnull align 8 dereferenceable(8) ptr @_ZStlsISt11char_traitsIcEERSt13basic_ostreamIcT_ES5_PKc(ptr noundef nonnull align 8 dereferenceable(8) %call37, ptr noundef nonnull @.str.23)
          to label %invoke.cont38 unwind label %lpad29

invoke.cont38:                                    ; preds = %invoke.cont36
  %call41 = invoke noundef nonnull align 8 dereferenceable(8) ptr @_ZNSolsEi(ptr noundef nonnull align 8 dereferenceable(8) %call39, i32 noundef %call23)
          to label %invoke.cont40 unwind label %lpad29

invoke.cont40:                                    ; preds = %invoke.cont38
  call void @_ZN6google10LogMessageD1Ev(ptr noundef nonnull align 8 dereferenceable(16) %ref.tmp) #34
  br label %if.end42

lpad:                                             ; preds = %if.end20
  %9 = landingpad { ptr, i32 }
          cleanup
  br label %common.resume

lpad27:                                           ; preds = %if.then26
  %10 = landingpad { ptr, i32 }
          cleanup
  br label %ehcleanup

lpad29:                                           ; preds = %invoke.cont38, %invoke.cont36, %invoke.cont34, %invoke.cont32, %invoke.cont30, %invoke.cont28
  %11 = landingpad { ptr, i32 }
          cleanup
  call void @_ZN6google10LogMessageD1Ev(ptr noundef nonnull align 8 dereferenceable(16) %ref.tmp) #34
  br label %ehcleanup

if.end42:                                         ; preds = %invoke.cont, %invoke.cont40
  call void @_ZNSt7__cxx1112basic_stringIcSt11char_traitsIcESaIcEED1Ev(ptr noundef nonnull align 8 dereferenceable(32) %checkpointPath) #34
  call void @_ZNSt7__cxx1112basic_stringIcSt11char_traitsIcESaIcEED1Ev(ptr noundef nonnull align 8 dereferenceable(32) %logPath) #34
  br label %return

return:                                           ; preds = %entry, %if.end42
  ret void

ehcleanup:                                        ; preds = %lpad29, %lpad27
  %.pn = phi { ptr, i32 } [ %11, %lpad29 ], [ %10, %lpad27 ]
  call void @_ZNSt7__cxx1112basic_stringIcSt11char_traitsIcESaIcEED1Ev(ptr noundef nonnull align 8 dereferenceable(32) %checkpointPath) #34
  br label %common.resume
}